target datalayout = "e-m:e-p270:32:32-p271:32:32-p272:64:64-i64:64-i128:128-f80:128-n8:16:32:64-S128"
target triple = "x86_64-unknown-linux-gnu"

%struct.QEMUTimerListGroup = type { [4 x ptr] }
%struct.QEMUTimer = type { i64, ptr, ptr, ptr, ptr, i32, i32 }

@main_loop_tlg = dso_local global %struct.QEMUTimerListGroup zeroinitializer, align 8

; Function Attrs: nounwind sspstrong uwtable
define dso_local void @timer_init_full(ptr noundef %ts, ptr noundef %timer_list_group, i32 noundef %type, i32 noundef %scale, i32 noundef %attributes, ptr noundef %cb, ptr noundef %opaque) #0 {
entry:
  %ts.addr = alloca ptr, align 8
  %timer_list_group.addr = alloca ptr, align 8
  %type.addr = alloca i32, align 4
  %scale.addr = alloca i32, align 4
  %attributes.addr = alloca i32, align 4
  %cb.addr = alloca ptr, align 8
  %opaque.addr = alloca ptr, align 8
  store ptr %ts, ptr %ts.addr, align 8
  store ptr %timer_list_group, ptr %timer_list_group.addr, align 8
  store i32 %type, ptr %type.addr, align 4
  store i32 %scale, ptr %scale.addr, align 4
  store i32 %attributes, ptr %attributes.addr, align 4
  store ptr %cb, ptr %cb.addr, align 8
  store ptr %opaque, ptr %opaque.addr, align 8
  %0 = load ptr, ptr %timer_list_group.addr, align 8
  %tobool = icmp ne ptr %0, null
  br i1 %tobool, label %if.end, label %if.then

if.then:                                          ; preds = %entry
  store ptr @main_loop_tlg, ptr %timer_list_group.addr, align 8
  br label %if.end

if.end:                                           ; preds = %if.then, %entry
  %1 = load ptr, ptr %timer_list_group.addr, align 8
  %tl = getelementptr inbounds %struct.QEMUTimerListGroup, ptr %1, i32 0, i32 0
  %2 = load i32, ptr %type.addr, align 4
  %idxprom = zext i32 %2 to i64
  %arrayidx = getelementptr [4 x ptr], ptr %tl, i64 0, i64 %idxprom
  %3 = load ptr, ptr %arrayidx, align 8
  %4 = load ptr, ptr %ts.addr, align 8
  %timer_list = getelementptr inbounds %struct.QEMUTimer, ptr %4, i32 0, i32 1
  store ptr %3, ptr %timer_list, align 8
  %5 = load ptr, ptr %cb.addr, align 8
  %6 = load ptr, ptr %ts.addr, align 8
  %cb1 = getelementptr inbounds %struct.QEMUTimer, ptr %6, i32 0, i32 2
  store ptr %5, ptr %cb1, align 8
  %7 = load ptr, ptr %opaque.addr, align 8
  %8 = load ptr, ptr %ts.addr, align 8
  %opaque2 = getelementptr inbounds %struct.QEMUTimer, ptr %8, i32 0, i32 3
  store ptr %7, ptr %opaque2, align 8
  %9 = load i32, ptr %scale.addr, align 4
  %10 = load ptr, ptr %ts.addr, align 8
  %scale3 = getelementptr inbounds %struct.QEMUTimer, ptr %10, i32 0, i32 6
  store i32 %9, ptr %scale3, align 4
  %11 = load i32, ptr %attributes.addr, align 4
  %12 = load ptr, ptr %ts.addr, align 8
  %attributes4 = getelementptr inbounds %struct.QEMUTimer, ptr %12, i32 0, i32 5
  store i32 %11, ptr %attributes4, align 8
  %13 = load ptr, ptr %ts.addr, align 8
  %expire_time = getelementptr inbounds %struct.QEMUTimer, ptr %13, i32 0, i32 0
  store i64 -1, ptr %expire_time, align 8
  ret void
}