; Function Attrs: mustprogress nofree norecurse nosync nounwind sspstrong willreturn memory(read, argmem: readwrite, inaccessiblemem: none) uwtable
define dso_local void @timer_init_full(ptr noundef writeonly captures(none) initializes((0, 32), (40, 48)) %ts, ptr noundef readonly %timer_list_group, i32 noundef %type, i32 noundef %scale, i32 noundef %attributes, ptr noundef %cb, ptr noundef %opaque) local_unnamed_addr #9 {
entry:
  %tobool.not = icmp eq ptr %timer_list_group, null
  %spec.store.select = select i1 %tobool.not, ptr @main_loop_tlg, ptr %timer_list_group
  %idxprom = zext i32 %type to i64
  %arrayidx = getelementptr [4 x ptr], ptr %spec.store.select, i64 0, i64 %idxprom
  %0 = load ptr, ptr %arrayidx, align 8
  %timer_list = getelementptr inbounds nuw i8, ptr %ts, i64 8
  store ptr %0, ptr %timer_list, align 8
  %cb1 = getelementptr inbounds nuw i8, ptr %ts, i64 16
  store ptr %cb, ptr %cb1, align 8
  %opaque2 = getelementptr inbounds nuw i8, ptr %ts, i64 24
  store ptr %opaque, ptr %opaque2, align 8
  %scale3 = getelementptr inbounds nuw i8, ptr %ts, i64 44
  store i32 %scale, ptr %scale3, align 4
  %attributes4 = getelementptr inbounds nuw i8, ptr %ts, i64 40
  store i32 %attributes, ptr %attributes4, align 8
  store i64 -1, ptr %ts, align 8
  ret void
}